target datalayout = "e-m:e-p270:32:32-p271:32:32-p272:64:64-i64:64-i128:128-f80:128-n8:16:32:64-S128"
target triple = "x86_64-pc-linux-gnu"

%"struct.std::_Rb_tree_key_compare" = type { %"struct.std::less" }
%"struct.std::less" = type { i8 }
%"struct.std::_Rb_tree_header" = type { %"struct.std::_Rb_tree_node_base", i64 }
%"struct.std::_Rb_tree_node_base" = type { i32, ptr, ptr, ptr }
%"class.std::vector" = type { %"struct.std::_Vector_base" }
%"struct.std::_Vector_base" = type { %"struct.std::_Vector_base<std::__cxx11::basic_string<char>, std::allocator<std::__cxx11::basic_string<char>>>::_Vector_impl" }
%"struct.std::_Vector_base<std::__cxx11::basic_string<char>, std::allocator<std::__cxx11::basic_string<char>>>::_Vector_impl" = type { %"struct.std::_Vector_base<std::__cxx11::basic_string<char>, std::allocator<std::__cxx11::basic_string<char>>>::_Vector_impl_data" }
%"struct.std::_Vector_base<std::__cxx11::basic_string<char>, std::allocator<std::__cxx11::basic_string<char>>>::_Vector_impl_data" = type { ptr, ptr, ptr }
%"class.colvar::cvc" = type { %class.colvarparse, %class.colvardeps, %"class.std::__cxx11::basic_string", %"class.std::__cxx11::basic_string", %"class.std::__cxx11::basic_string", double, i32, double, double, i32, %"class.std::vector.54", i8, %"class.std::vector", %class.colvarvalue, %class.colvarvalue, %class.colvarvalue, %class.colvarvalue, %class.colvarvalue, %class.colvarvalue, double }
%class.colvarparse = type { %class.colvarparams, %"class.std::__cxx11::basic_string", %"class.std::__cxx11::basic_string", %"class.std::__cxx11::list", %"class.std::map.34", %"class.std::__cxx11::list.39", %"class.std::__cxx11::list.39", %"class.std::__cxx11::basic_string" }
%class.colvarparams = type { ptr, %"class.std::map", %"class.std::map.23" }
%"class.std::map" = type { %"class.std::_Rb_tree" }
%"class.std::_Rb_tree" = type { %"struct.std::_Rb_tree<std::__cxx11::basic_string<char>, std::pair<const std::__cxx11::basic_string<char>, const void *>, std::_Select1st<std::pair<const std::__cxx11::basic_string<char>, const void *>>, std::less<std::__cxx11::basic_string<char>>>::_Rb_tree_impl" }
%"struct.std::_Rb_tree<std::__cxx11::basic_string<char>, std::pair<const std::__cxx11::basic_string<char>, const void *>, std::_Select1st<std::pair<const std::__cxx11::basic_string<char>, const void *>>, std::less<std::__cxx11::basic_string<char>>>::_Rb_tree_impl" = type { %"struct.std::_Rb_tree_key_compare", %"struct.std::_Rb_tree_header" }
%"class.std::map.23" = type { %"class.std::_Rb_tree.24" }
%"class.std::_Rb_tree.24" = type { %"struct.std::_Rb_tree<std::__cxx11::basic_string<char>, std::pair<const std::__cxx11::basic_string<char>, const colvarvalue *>, std::_Select1st<std::pair<const std::__cxx11::basic_string<char>, const colvarvalue *>>, std::less<std::__cxx11::basic_string<char>>>::_Rb_tree_impl" }
%"struct.std::_Rb_tree<std::__cxx11::basic_string<char>, std::pair<const std::__cxx11::basic_string<char>, const colvarvalue *>, std::_Select1st<std::pair<const std::__cxx11::basic_string<char>, const colvarvalue *>>, std::less<std::__cxx11::basic_string<char>>>::_Rb_tree_impl" = type { %"struct.std::_Rb_tree_key_compare", %"struct.std::_Rb_tree_header" }
%"class.std::__cxx11::list" = type { %"class.std::__cxx11::_List_base" }
%"class.std::__cxx11::_List_base" = type { %"struct.std::__cxx11::_List_base<std::__cxx11::basic_string<char>, std::allocator<std::__cxx11::basic_string<char>>>::_List_impl" }
%"struct.std::__cxx11::_List_base<std::__cxx11::basic_string<char>, std::allocator<std::__cxx11::basic_string<char>>>::_List_impl" = type { %"struct.std::__detail::_List_node_header" }
%"struct.std::__detail::_List_node_header" = type { %"struct.std::__detail::_List_node_base", i64 }
%"struct.std::__detail::_List_node_base" = type { ptr, ptr }
%"class.std::map.34" = type { %"class.std::_Rb_tree.35" }
%"class.std::_Rb_tree.35" = type { %"struct.std::_Rb_tree<std::__cxx11::basic_string<char>, std::pair<const std::__cxx11::basic_string<char>, colvarparse::key_set_mode>, std::_Select1st<std::pair<const std::__cxx11::basic_string<char>, colvarparse::key_set_mode>>, std::less<std::__cxx11::basic_string<char>>>::_Rb_tree_impl" }
%"struct.std::_Rb_tree<std::__cxx11::basic_string<char>, std::pair<const std::__cxx11::basic_string<char>, colvarparse::key_set_mode>, std::_Select1st<std::pair<const std::__cxx11::basic_string<char>, colvarparse::key_set_mode>>, std::less<std::__cxx11::basic_string<char>>>::_Rb_tree_impl" = type { %"struct.std::_Rb_tree_key_compare", %"struct.std::_Rb_tree_header" }
%"class.std::__cxx11::list.39" = type { %"class.std::__cxx11::_List_base.40" }
%"class.std::__cxx11::_List_base.40" = type { %"struct.std::__cxx11::_List_base<unsigned long, std::allocator<unsigned long>>::_List_impl" }
%"struct.std::__cxx11::_List_base<unsigned long, std::allocator<unsigned long>>::_List_impl" = type { %"struct.std::__detail::_List_node_header" }
%class.colvardeps = type { ptr, %"class.std::__cxx11::basic_string", i32, %"class.std::vector.44", %"class.std::vector.49", %"class.std::vector.49" }
%"class.std::vector.44" = type { %"struct.std::_Vector_base.45" }
%"struct.std::_Vector_base.45" = type { %"struct.std::_Vector_base<colvardeps::feature_state, std::allocator<colvardeps::feature_state>>::_Vector_impl" }
%"struct.std::_Vector_base<colvardeps::feature_state, std::allocator<colvardeps::feature_state>>::_Vector_impl" = type { %"struct.std::_Vector_base<colvardeps::feature_state, std::allocator<colvardeps::feature_state>>::_Vector_impl_data" }
%"struct.std::_Vector_base<colvardeps::feature_state, std::allocator<colvardeps::feature_state>>::_Vector_impl_data" = type { ptr, ptr, ptr }
%"class.std::vector.49" = type { %"struct.std::_Vector_base.50" }
%"struct.std::_Vector_base.50" = type { %"struct.std::_Vector_base<colvardeps *, std::allocator<colvardeps *>>::_Vector_impl" }
%"struct.std::_Vector_base<colvardeps *, std::allocator<colvardeps *>>::_Vector_impl" = type { %"struct.std::_Vector_base<colvardeps *, std::allocator<colvardeps *>>::_Vector_impl_data" }
%"struct.std::_Vector_base<colvardeps *, std::allocator<colvardeps *>>::_Vector_impl_data" = type { ptr, ptr, ptr }
%"class.std::__cxx11::basic_string" = type { %"struct.std::__cxx11::basic_string<char>::_Alloc_hider", i64, %union.anon }
%"struct.std::__cxx11::basic_string<char>::_Alloc_hider" = type { ptr }
%union.anon = type { i64, [8 x i8] }
%class.colvarvalue = type { i32, double, %"class.colvarmodule::rvector", %"class.colvarmodule::quaternion", %"class.colvarmodule::vector1d", %"class.std::vector.10", %"class.std::vector.15", %"class.std::vector.15" }
%"class.colvarmodule::rvector" = type { double, double, double }
%"class.colvarmodule::quaternion" = type { double, double, double, double }
%"class.colvarmodule::vector1d" = type { %"class.std::vector.5" }
%"class.std::vector.5" = type { %"struct.std::_Vector_base.6" }
%"struct.std::_Vector_base.6" = type { %"struct.std::_Vector_base<double, std::allocator<double>>::_Vector_impl" }
%"struct.std::_Vector_base<double, std::allocator<double>>::_Vector_impl" = type { %"struct.std::_Vector_base<double, std::allocator<double>>::_Vector_impl_data" }
%"struct.std::_Vector_base<double, std::allocator<double>>::_Vector_impl_data" = type { ptr, ptr, ptr }
%"class.std::vector.10" = type { %"struct.std::_Vector_base.11" }
%"struct.std::_Vector_base.11" = type { %"struct.std::_Vector_base<colvarvalue::Type, std::allocator<colvarvalue::Type>>::_Vector_impl" }
%"struct.std::_Vector_base<colvarvalue::Type, std::allocator<colvarvalue::Type>>::_Vector_impl" = type { %"struct.std::_Vector_base<colvarvalue::Type, std::allocator<colvarvalue::Type>>::_Vector_impl_data" }
%"struct.std::_Vector_base<colvarvalue::Type, std::allocator<colvarvalue::Type>>::_Vector_impl_data" = type { ptr, ptr, ptr }
%"class.std::vector.15" = type { %"struct.std::_Vector_base.16" }
%"struct.std::_Vector_base.16" = type { %"struct.std::_Vector_base<int, std::allocator<int>>::_Vector_impl" }
%"struct.std::_Vector_base<int, std::allocator<int>>::_Vector_impl" = type { %"struct.std::_Vector_base<int, std::allocator<int>>::_Vector_impl_data" }
%"struct.std::_Vector_base<int, std::allocator<int>>::_Vector_impl_data" = type { ptr, ptr, ptr }
%"class.std::vector.54" = type { %"struct.std::_Vector_base.55" }
%"struct.std::_Vector_base.55" = type { %"struct.std::_Vector_base<colvarmodule::atom_group *, std::allocator<colvarmodule::atom_group *>>::_Vector_impl" }
%"struct.std::_Vector_base<colvarmodule::atom_group *, std::allocator<colvarmodule::atom_group *>>::_Vector_impl" = type { %"struct.std::_Vector_base<colvarmodule::atom_group *, std::allocator<colvarmodule::atom_group *>>::_Vector_impl_data" }
%"struct.std::_Vector_base<colvarmodule::atom_group *, std::allocator<colvarmodule::atom_group *>>::_Vector_impl_data" = type { ptr, ptr, ptr }
%"class.std::vector.64" = type { %"struct.std::_Vector_base.65" }
%"struct.std::_Vector_base.65" = type { %"struct.std::_Vector_base<colvarmodule::rvector, std::allocator<colvarmodule::rvector>>::_Vector_impl" }
%"struct.std::_Vector_base<colvarmodule::rvector, std::allocator<colvarmodule::rvector>>::_Vector_impl" = type { %"struct.std::_Vector_base<colvarmodule::rvector, std::allocator<colvarmodule::rvector>>::_Vector_impl_data" }
%"struct.std::_Vector_base<colvarmodule::rvector, std::allocator<colvarmodule::rvector>>::_Vector_impl_data" = type { ptr, ptr, ptr }
%"class.std::vector.77" = type { %"struct.std::_Vector_base.78" }
%"struct.std::_Vector_base.78" = type { %"struct.std::_Vector_base<unsigned long, std::allocator<unsigned long>>::_Vector_impl" }
%"struct.std::_Vector_base<unsigned long, std::allocator<unsigned long>>::_Vector_impl" = type { %"struct.std::_Vector_base<unsigned long, std::allocator<unsigned long>>::_Vector_impl_data" }
%"struct.std::_Vector_base<unsigned long, std::allocator<unsigned long>>::_Vector_impl_data" = type { ptr, ptr, ptr }
%"class.GeometricPathCV::GeometricPathBase.88" = type { ptr, double, double, double, double, double, double, double, double, double, double, double, %"class.std::vector.64", %"class.std::vector.64", %"class.std::vector.64", %"class.std::vector.64", %"class.std::vector.64", %"class.std::vector.64", %"class.std::vector.64", %"class.std::vector.64", %"class.std::vector.5", %"class.std::vector.77", i8, i8, i8, i64, i64, i64, i64, double, double }

; Function Attrs: mustprogress uwtable
define void @_ZN6colvar6gzpath10calc_valueEv(ptr noundef nonnull align 8 dereferenceable(3272) %0) unnamed_addr #2 align 2 personality ptr @__gxx_personality_v0 {
  %2 = alloca ptr, align 8
  %3 = alloca %class.colvarvalue, align 8
  %4 = alloca ptr, align 8
  %5 = alloca i32, align 4
  store ptr %0, ptr %2, align 8
  %6 = load ptr, ptr %2, align 8
  %7 = getelementptr inbounds i8, ptr %6, i64 1744
  %8 = load ptr, ptr %7, align 8
  %9 = getelementptr inbounds ptr, ptr %8, i64 8
  %10 = load ptr, ptr %9, align 8
  call void %10(ptr noundef nonnull align 8 dereferenceable(392) %7)
  %11 = getelementptr inbounds i8, ptr %6, i64 1744
  %12 = getelementptr inbounds %"class.GeometricPathCV::GeometricPathBase.88", ptr %11, i32 0, i32 10
  call void @_ZN11colvarvalueC1ERKd(ptr noundef nonnull align 8 dereferenceable(168) %3, ptr noundef nonnull align 8 dereferenceable(8) %12)
  %13 = getelementptr inbounds %"class.colvar::cvc", ptr %6, i32 0, i32 13
  %14 = invoke noundef nonnull align 8 dereferenceable(168) ptr @_ZN11colvarvalueaSERKS_(ptr noundef nonnull align 8 dereferenceable(168) %13, ptr noundef nonnull align 8 dereferenceable(168) %3)
          to label %15 unwind label %16

15:                                               ; preds = %1
  call void @_ZN11colvarvalueD2Ev(ptr noundef nonnull align 8 dereferenceable(168) %3) #15
  ret void

16:                                               ; preds = %1
  %17 = landingpad { ptr, i32 }
          cleanup
  %18 = extractvalue { ptr, i32 } %17, 0
  store ptr %18, ptr %4, align 8
  %19 = extractvalue { ptr, i32 } %17, 1
  store i32 %19, ptr %5, align 4
  call void @_ZN11colvarvalueD2Ev(ptr noundef nonnull align 8 dereferenceable(168) %3) #15
  br label %20

20:                                               ; preds = %16
  %21 = load ptr, ptr %4, align 8
  %22 = load i32, ptr %5, align 4
  %23 = insertvalue { ptr, i32 } poison, ptr %21, 0
  %24 = insertvalue { ptr, i32 } %23, i32 %22, 1
  resume { ptr, i32 } %24
}